target datalayout = "e-m:e-p270:32:32-p271:32:32-p272:64:64-i64:64-i128:128-f80:128-n8:16:32:64-S128"
target triple = "x86_64-pc-linux-gnu"

%struct._stat_tap_table_ui = type { i32, ptr, ptr, ptr, ptr, ptr, ptr, ptr, ptr, i64, ptr, i64, ptr, ptr, i32 }

; Function Attrs: null_pointer_is_valid sspstrong uwtable
define void @stat_tap_get_filter(ptr noundef %0, ptr noundef %1, ptr noundef %2, ptr noundef %3) #0 {
  %5 = alloca ptr, align 8
  %6 = alloca ptr, align 8
  %7 = alloca ptr, align 8
  %8 = alloca ptr, align 8
  %9 = alloca i32, align 4
  store ptr %0, ptr %5, align 8
  store ptr %1, ptr %6, align 8
  store ptr %2, ptr %7, align 8
  store ptr %3, ptr %8, align 8
  call void @llvm.lifetime.start.p0(i64 4, ptr %9) #13
  %10 = load ptr, ptr %5, align 8
  %11 = getelementptr inbounds nuw %struct._stat_tap_table_ui, ptr %10, i32 0, i32 3
  %12 = load ptr, ptr %11, align 8
  %13 = call i64 @strlen(ptr noundef %12) #15
  %14 = trunc i64 %13 to i32
  store i32 %14, ptr %9, align 4
  %15 = load ptr, ptr %7, align 8
  store ptr null, ptr %15, align 8
  %16 = load ptr, ptr %8, align 8
  store ptr null, ptr %16, align 8
  %17 = load ptr, ptr %6, align 8
  %18 = load ptr, ptr %5, align 8
  %19 = getelementptr inbounds nuw %struct._stat_tap_table_ui, ptr %18, i32 0, i32 3
  %20 = load ptr, ptr %19, align 8
  %21 = load i32, ptr %9, align 4
  %22 = zext i32 %21 to i64
  %23 = call i32 @strncmp(ptr noundef %17, ptr noundef %20, i64 noundef %22) #15
  %24 = icmp ne i32 %23, 0
  br i1 %24, label %41, label %25

25:                                               ; preds = %4
  %26 = load ptr, ptr %6, align 8
  %27 = load i32, ptr %9, align 4
  %28 = zext i32 %27 to i64
  %29 = getelementptr i8, ptr %26, i64 %28
  %30 = load i8, ptr %29, align 1
  %31 = sext i8 %30 to i32
  %32 = icmp eq i32 %31, 44
  br i1 %32, label %33, label %40

33:                                               ; preds = %25
  %34 = load ptr, ptr %6, align 8
  %35 = load i32, ptr %9, align 4
  %36 = zext i32 %35 to i64
  %37 = getelementptr i8, ptr %34, i64 %36
  %38 = getelementptr i8, ptr %37, i64 1
  %39 = load ptr, ptr %7, align 8
  store ptr %38, ptr %39, align 8
  br label %40

40:                                               ; preds = %33, %25
  br label %41

41:                                               ; preds = %40, %4
  %42 = load ptr, ptr %5, align 8
  %43 = getelementptr inbounds nuw %struct._stat_tap_table_ui, ptr %42, i32 0, i32 8
  %44 = load ptr, ptr %43, align 8
  %45 = icmp ne ptr %44, null
  br i1 %45, label %46, label %53

46:                                               ; preds = %41
  %47 = load ptr, ptr %5, align 8
  %48 = getelementptr inbounds nuw %struct._stat_tap_table_ui, ptr %47, i32 0, i32 8
  %49 = load ptr, ptr %48, align 8
  %50 = load ptr, ptr %6, align 8
  %51 = load ptr, ptr %7, align 8
  %52 = load ptr, ptr %8, align 8
  call void %49(ptr noundef %50, ptr noundef %51, ptr noundef %52)
  br label %53

53:                                               ; preds = %46, %41
  call void @llvm.lifetime.end.p0(i64 4, ptr %9) #13
  ret void
}