; Function Attrs: null_pointer_is_valid sspstrong uwtable
define void @stat_tap_get_filter(ptr noundef readonly captures(none) %0, ptr noundef %1, ptr noundef initializes((0, 8)) %2, ptr noundef initializes((0, 8)) %3) local_unnamed_addr #0 {
  %5 = getelementptr inbounds nuw i8, ptr %0, i64 24
  %6 = load ptr, ptr %5, align 8
  %7 = tail call i64 @strlen(ptr noundef %6) #11
  store ptr null, ptr %2, align 8
  store ptr null, ptr %3, align 8
  %8 = load ptr, ptr %5, align 8
  %9 = and i64 %7, 4294967295
  %10 = tail call i32 @strncmp(ptr noundef %1, ptr noundef %8, i64 noundef %9) #11
  %.not = icmp eq i32 %10, 0
  br i1 %.not, label %11, label %17

11:                                               ; preds = %4
  %12 = getelementptr i8, ptr %1, i64 %9
  %13 = load i8, ptr %12, align 1
  %14 = icmp eq i8 %13, 44
  br i1 %14, label %15, label %17

15:                                               ; preds = %11
  %16 = getelementptr i8, ptr %12, i64 1
  store ptr %16, ptr %2, align 8
  br label %17

17:                                               ; preds = %11, %15, %4
  %18 = getelementptr inbounds nuw i8, ptr %0, i64 64
  %19 = load ptr, ptr %18, align 8
  %.not15 = icmp eq ptr %19, null
  br i1 %.not15, label %21, label %20

20:                                               ; preds = %17
  tail call void %19(ptr noundef %1, ptr noundef %2, ptr noundef %3)
  br label %21

21:                                               ; preds = %20, %17
  ret void
}